target datalayout = "e-m:e-p270:32:32-p271:32:32-p272:64:64-i64:64-i128:128-f80:128-n8:16:32:64-S128"
target triple = "x86_64-pc-linux-gnu"

@hf_nano_block_hash_previous = internal global i32 0, align 4
@hf_nano_block_signature = internal global i32 0, align 4
@hf_nano_block_work = internal global i32 0, align 4
@hf_nano_block_balance = internal global i32 0, align 4
@hf_nano_block_account = internal global i32 0, align 4
@hf_nano_block_representative_account = internal global i32 0, align 4
@hf_nano_block_link = internal global i32 0, align 4
@ett_nano_block = internal global i32 0, align 4
@.str.124 = private unnamed_addr constant [12 x i8] c"State Block\00", align 1

; Function Attrs: null_pointer_is_valid sspstrong uwtable
define internal i32 @dissect_nano_state(ptr noundef %0, ptr noundef %1, i32 noundef %2) #0 {
  %4 = alloca ptr, align 8
  %5 = alloca ptr, align 8
  %6 = alloca i32, align 4
  %7 = alloca ptr, align 8
  store ptr %0, ptr %4, align 8
  store ptr %1, ptr %5, align 8
  store i32 %2, ptr %6, align 4
  call void @llvm.lifetime.start.p0(i64 8, ptr %7) #8
  %8 = load ptr, ptr %5, align 8
  %9 = load ptr, ptr %4, align 8
  %10 = load i32, ptr %6, align 4
  %11 = load i32, ptr @ett_nano_block, align 4
  %12 = call ptr @proto_tree_add_subtree(ptr noundef %8, ptr noundef %9, i32 noundef %10, i32 noundef 216, i32 noundef %11, ptr noundef null, ptr noundef @.str.124)
  store ptr %12, ptr %7, align 8
  %13 = load ptr, ptr %7, align 8
  %14 = load i32, ptr @hf_nano_block_account, align 4
  %15 = load ptr, ptr %4, align 8
  %16 = load i32, ptr %6, align 4
  %17 = call ptr @proto_tree_add_item(ptr noundef %13, i32 noundef %14, ptr noundef %15, i32 noundef %16, i32 noundef 32, i32 noundef 0)
  %18 = load i32, ptr %6, align 4
  %19 = add i32 %18, 32
  store i32 %19, ptr %6, align 4
  %20 = load ptr, ptr %7, align 8
  %21 = load i32, ptr @hf_nano_block_hash_previous, align 4
  %22 = load ptr, ptr %4, align 8
  %23 = load i32, ptr %6, align 4
  %24 = call ptr @proto_tree_add_item(ptr noundef %20, i32 noundef %21, ptr noundef %22, i32 noundef %23, i32 noundef 32, i32 noundef 0)
  %25 = load i32, ptr %6, align 4
  %26 = add i32 %25, 32
  store i32 %26, ptr %6, align 4
  %27 = load ptr, ptr %7, align 8
  %28 = load i32, ptr @hf_nano_block_representative_account, align 4
  %29 = load ptr, ptr %4, align 8
  %30 = load i32, ptr %6, align 4
  %31 = call ptr @proto_tree_add_item(ptr noundef %27, i32 noundef %28, ptr noundef %29, i32 noundef %30, i32 noundef 32, i32 noundef 0)
  %32 = load i32, ptr %6, align 4
  %33 = add i32 %32, 32
  store i32 %33, ptr %6, align 4
  %34 = load ptr, ptr %7, align 8
  %35 = load i32, ptr @hf_nano_block_balance, align 4
  %36 = load ptr, ptr %4, align 8
  %37 = load i32, ptr %6, align 4
  %38 = call ptr @proto_tree_add_item(ptr noundef %34, i32 noundef %35, ptr noundef %36, i32 noundef %37, i32 noundef 16, i32 noundef 0)
  %39 = load i32, ptr %6, align 4
  %40 = add i32 %39, 16
  store i32 %40, ptr %6, align 4
  %41 = load ptr, ptr %7, align 8
  %42 = load i32, ptr @hf_nano_block_link, align 4
  %43 = load ptr, ptr %4, align 8
  %44 = load i32, ptr %6, align 4
  %45 = call ptr @proto_tree_add_item(ptr noundef %41, i32 noundef %42, ptr noundef %43, i32 noundef %44, i32 noundef 32, i32 noundef 0)
  %46 = load i32, ptr %6, align 4
  %47 = add i32 %46, 32
  store i32 %47, ptr %6, align 4
  %48 = load ptr, ptr %7, align 8
  %49 = load i32, ptr @hf_nano_block_signature, align 4
  %50 = load ptr, ptr %4, align 8
  %51 = load i32, ptr %6, align 4
  %52 = call ptr @proto_tree_add_item(ptr noundef %48, i32 noundef %49, ptr noundef %50, i32 noundef %51, i32 noundef 64, i32 noundef 0)
  %53 = load i32, ptr %6, align 4
  %54 = add i32 %53, 64
  store i32 %54, ptr %6, align 4
  %55 = load ptr, ptr %7, align 8
  %56 = load i32, ptr @hf_nano_block_work, align 4
  %57 = load ptr, ptr %4, align 8
  %58 = load i32, ptr %6, align 4
  %59 = call ptr @proto_tree_add_item(ptr noundef %55, i32 noundef %56, ptr noundef %57, i32 noundef %58, i32 noundef 8, i32 noundef 0)
  %60 = load i32, ptr %6, align 4
  %61 = add i32 %60, 8
  store i32 %61, ptr %6, align 4
  %62 = load i32, ptr %6, align 4
  call void @llvm.lifetime.end.p0(i64 8, ptr %7) #8
  ret i32 %62
}