; Function Attrs: null_pointer_is_valid sspstrong uwtable
define internal fastcc void @dissect_nano_state(ptr noundef %0, ptr noundef %1, i32 noundef range(i32 1, 113) %2) unnamed_addr #0 {
  %4 = load i32, ptr @ett_nano_block, align 4
  %5 = tail call ptr @proto_tree_add_subtree(ptr noundef %1, ptr noundef %0, i32 noundef %2, i32 noundef 216, i32 noundef %4, ptr noundef null, ptr noundef nonnull @.str.124)
  %6 = load i32, ptr @hf_nano_block_account, align 4
  %7 = tail call ptr @proto_tree_add_item(ptr noundef %5, i32 noundef %6, ptr noundef %0, i32 noundef %2, i32 noundef 32, i32 noundef 0)
  %8 = add nuw nsw i32 %2, 32
  %9 = load i32, ptr @hf_nano_block_hash_previous, align 4
  %10 = tail call ptr @proto_tree_add_item(ptr noundef %5, i32 noundef %9, ptr noundef %0, i32 noundef %8, i32 noundef 32, i32 noundef 0)
  %11 = add nuw nsw i32 %2, 64
  %12 = load i32, ptr @hf_nano_block_representative_account, align 4
  %13 = tail call ptr @proto_tree_add_item(ptr noundef %5, i32 noundef %12, ptr noundef %0, i32 noundef %11, i32 noundef 32, i32 noundef 0)
  %14 = add nuw nsw i32 %2, 96
  %15 = load i32, ptr @hf_nano_block_balance, align 4
  %16 = tail call ptr @proto_tree_add_item(ptr noundef %5, i32 noundef %15, ptr noundef %0, i32 noundef %14, i32 noundef 16, i32 noundef 0)
  %17 = add nuw nsw i32 %2, 112
  %18 = load i32, ptr @hf_nano_block_link, align 4
  %19 = tail call ptr @proto_tree_add_item(ptr noundef %5, i32 noundef %18, ptr noundef %0, i32 noundef %17, i32 noundef 32, i32 noundef 0)
  %20 = add nuw nsw i32 %2, 144
  %21 = load i32, ptr @hf_nano_block_signature, align 4
  %22 = tail call ptr @proto_tree_add_item(ptr noundef %5, i32 noundef %21, ptr noundef %0, i32 noundef %20, i32 noundef 64, i32 noundef 0)
  %23 = add nuw nsw i32 %2, 208
  %24 = load i32, ptr @hf_nano_block_work, align 4
  %25 = tail call ptr @proto_tree_add_item(ptr noundef %5, i32 noundef %24, ptr noundef %0, i32 noundef %23, i32 noundef 8, i32 noundef 0)
  ret void
}